; Function Attrs: mustprogress uwtable
define internal noundef zeroext i1 @_ZNSt17_Function_handlerIFbllbEZN5arrow7compute8internal12_GLOBAL__N_119PrimitiveFilterImplILi32ELb0EE13ExecREEFilterEvEUlllbE1_E9_M_invokeERKSt9_Any_dataOlSC_Ob(ptr noundef nonnull readonly align 8 captures(none) dereferenceable(16) %0, ptr noundef nonnull readonly align 8 captures(none) dereferenceable(8) %1, ptr noundef nonnull readonly align 8 captures(none) dereferenceable(8) %2, ptr noundef nonnull readonly align 1 captures(none) dereferenceable(1) %3) #1 align 2 {
  %.val = load ptr, ptr %0, align 8, !tbaa !940
  %.val5 = load i64, ptr %2, align 8, !tbaa !75
  %.val6 = load i8, ptr %3, align 1, !tbaa !795, !range !137, !noundef !138
  %5 = trunc nuw i8 %.val6 to i1
  %6 = getelementptr inbounds nuw i8, ptr %.val, i64 88
  %7 = load i64, ptr %6, align 8, !tbaa !299
  %8 = shl nsw i64 %.val5, 5
  br i1 %5, label %9, label %18

9:                                                ; preds = %4
  %.val4 = load i64, ptr %1, align 8, !tbaa !75
  %10 = getelementptr inbounds nuw i8, ptr %.val, i64 72
  %11 = load ptr, ptr %10, align 8, !tbaa !297
  %12 = shl nsw i64 %7, 5
  %13 = getelementptr inbounds i8, ptr %11, i64 %12
  %14 = getelementptr inbounds nuw i8, ptr %.val, i64 16
  %15 = load ptr, ptr %14, align 8, !tbaa !291
  %16 = shl nsw i64 %.val4, 5
  %17 = getelementptr inbounds i8, ptr %15, i64 %16
  tail call void @llvm.memcpy.p0.p0.i64(ptr align 1 %13, ptr align 1 %17, i64 %8, i1 false)
  br label %_ZSt10__invoke_rIbRZN5arrow7compute8internal12_GLOBAL__N_119PrimitiveFilterImplILi32ELb0EE13ExecREEFilterEvEUlllbE1_JllbEENSt9enable_ifIX16is_invocable_r_vIT_T0_DpT1_EES9_E4typeEOSA_DpOSB_.exit

18:                                               ; preds = %4
  %19 = getelementptr inbounds nuw i8, ptr %.val, i64 64
  %20 = load ptr, ptr %19, align 8, !tbaa !296
  tail call void @_ZN5arrow8bit_util9SetBitsToEPhllb(ptr noundef %20, i64 noundef %7, i64 noundef %.val5, i1 noundef zeroext false)
  %21 = getelementptr inbounds nuw i8, ptr %.val, i64 72
  %22 = load ptr, ptr %21, align 8, !tbaa !297
  %23 = load i64, ptr %6, align 8, !tbaa !299
  %24 = shl nsw i64 %23, 5
  %25 = getelementptr inbounds i8, ptr %22, i64 %24
  tail call void @llvm.memset.p0.i64(ptr align 1 %25, i8 0, i64 %8, i1 false)
  br label %_ZSt10__invoke_rIbRZN5arrow7compute8internal12_GLOBAL__N_119PrimitiveFilterImplILi32ELb0EE13ExecREEFilterEvEUlllbE1_JllbEENSt9enable_ifIX16is_invocable_r_vIT_T0_DpT1_EES9_E4typeEOSA_DpOSB_.exit

_ZSt10__invoke_rIbRZN5arrow7compute8internal12_GLOBAL__N_119PrimitiveFilterImplILi32ELb0EE13ExecREEFilterEvEUlllbE1_JllbEENSt9enable_ifIX16is_invocable_r_vIT_T0_DpT1_EES9_E4typeEOSA_DpOSB_.exit: ; preds = %9, %18
  %26 = load i64, ptr %6, align 8, !tbaa !299
  %27 = add nsw i64 %26, %.val5
  store i64 %27, ptr %6, align 8, !tbaa !299
  ret i1 true
}